; Function Attrs: mustprogress nofree norecurse nosync nounwind willreturn memory(argmem: read) uwtable
define hidden range(i32 0, 3) i32 @av1_get_pred_context_single_ref_p1(ptr nocapture noundef readonly %0) local_unnamed_addr #2 {
  %2 = getelementptr inbounds i8, ptr %0, i64 10635
  %3 = load i8, ptr %2, align 1
  %4 = zext i8 %3 to i32
  %5 = getelementptr inbounds i8, ptr %0, i64 10636
  %6 = load i8, ptr %5, align 1
  %7 = zext i8 %6 to i32
  %8 = add nuw nsw i32 %7, %4
  %9 = getelementptr inbounds i8, ptr %0, i64 10637
  %10 = load i8, ptr %9, align 1
  %11 = zext i8 %10 to i32
  %12 = add nuw nsw i32 %8, %11
  %13 = getelementptr inbounds i8, ptr %0, i64 10638
  %14 = load i8, ptr %13, align 1
  %15 = zext i8 %14 to i32
  %16 = add nuw nsw i32 %12, %15
  %17 = getelementptr inbounds i8, ptr %0, i64 10639
  %18 = load i8, ptr %17, align 1
  %19 = zext i8 %18 to i32
  %20 = getelementptr inbounds i8, ptr %0, i64 10640
  %21 = load i8, ptr %20, align 1
  %22 = zext i8 %21 to i32
  %23 = add nuw nsw i32 %22, %19
  %24 = getelementptr inbounds i8, ptr %0, i64 10641
  %25 = load i8, ptr %24, align 1
  %26 = zext i8 %25 to i32
  %27 = add nuw nsw i32 %23, %26
  %28 = icmp eq i32 %16, %27
  %29 = icmp ult i32 %16, %27
  %30 = select i1 %29, i32 0, i32 2
  %31 = select i1 %28, i32 1, i32 %30
  ret i32 %31
}